#include <math.h>
#include <stdio.h>
#include <stdlib.h>
#include <string.h>
#include <iostream>
using namespace std;

int sum=0;
void recur(int N,int i)
{
    if(N==1) sum++;
    while(i<=N)
    {
        if(N%i==0) 
			recur(N/i,i);
        i++;
    }
    return ;
}
int main()
{
    int t=0;
    cin>>t;
    for(int k = 0; k < t; k++)
    {
        int n=0;
        cin>>n;
        int i=2,res=1;
        for(int i =2; i <=n/2;i++)
        {
            if(n%i==0)
            {
                sum=0;
                recur(n/i,i);
                res+=sum;
            }
        }
        cout<<res<<endl;
    }
    return 0;
}
